; Function Attrs: nounwind uwtable
define dso_local void @str_end_url_with_slash(ptr noundef %0, ptr noundef captures(none) %1) local_unnamed_addr #3 {
  %3 = alloca %struct.strbuf, align 8
  call void @llvm.lifetime.start.p0(i64 24, ptr nonnull %3) #9
  call void @llvm.memcpy.p0.p0.i64(ptr noundef nonnull align 8 dereferenceable(24) %3, ptr noundef nonnull align 8 dereferenceable(24) @__const.str_end_url_with_slash.buf, i64 24, i1 false)
  %4 = tail call i64 @strlen(ptr noundef nonnull dereferenceable(1) %0) #8
  call void @strbuf_add(ptr noundef nonnull %3, ptr noundef nonnull %0, i64 noundef %4) #9
  %5 = getelementptr inbounds nuw i8, ptr %3, i64 8
  %6 = load i64, ptr %5, align 8, !tbaa !15
  %.not.i.i = icmp eq i64 %6, 0
  br i1 %.not.i.i, label %end_url_with_slash.exit, label %7

7:                                                ; preds = %2
  %8 = getelementptr inbounds nuw i8, ptr %3, i64 16
  %9 = load ptr, ptr %8, align 8, !tbaa !16
  %10 = getelementptr i8, ptr %9, i64 %6
  %11 = getelementptr i8, ptr %10, i64 -1
  %12 = load i8, ptr %11, align 1, !tbaa !4
  %.not6.i.i = icmp eq i8 %12, 47
  br i1 %.not6.i.i, label %end_url_with_slash.exit, label %13

13:                                               ; preds = %7
  %14 = load i64, ptr %3, align 8, !tbaa !12
  %.not.i.i.i.i = icmp eq i64 %14, 0
  %.neg.i.i.i = add i64 %6, 1
  %.not.i.i.i = icmp eq i64 %14, %.neg.i.i.i
  %or.cond.i.i = or i1 %.not.i.i.i.i, %.not.i.i.i
  br i1 %or.cond.i.i, label %strbuf_avail.exit.thread.i.i.i, label %strbuf_addch.exit.i.i

strbuf_avail.exit.thread.i.i.i:                   ; preds = %13
  call void @strbuf_grow(ptr noundef nonnull %3, i64 noundef 1) #9
  %.pre.i.i.i = load i64, ptr %5, align 8, !tbaa !15
  %.pre7.i.i.i = add i64 %.pre.i.i.i, 1
  %.pre.i.i = load ptr, ptr %8, align 8, !tbaa !16
  br label %strbuf_addch.exit.i.i

strbuf_addch.exit.i.i:                            ; preds = %strbuf_avail.exit.thread.i.i.i, %13
  %15 = phi ptr [ %.pre.i.i, %strbuf_avail.exit.thread.i.i.i ], [ %9, %13 ]
  %.pre-phi.i.i.i = phi i64 [ %.pre7.i.i.i, %strbuf_avail.exit.thread.i.i.i ], [ %.neg.i.i.i, %13 ]
  %16 = phi i64 [ %.pre.i.i.i, %strbuf_avail.exit.thread.i.i.i ], [ %6, %13 ]
  store i64 %.pre-phi.i.i.i, ptr %5, align 8, !tbaa !15
  %17 = getelementptr inbounds nuw i8, ptr %15, i64 %16
  store i8 47, ptr %17, align 1, !tbaa !4
  %18 = load ptr, ptr %8, align 8, !tbaa !16
  %19 = load i64, ptr %5, align 8, !tbaa !15
  %20 = getelementptr inbounds nuw i8, ptr %18, i64 %19
  store i8 0, ptr %20, align 1, !tbaa !4
  br label %end_url_with_slash.exit

end_url_with_slash.exit:                          ; preds = %2, %7, %strbuf_addch.exit.i.i
  %21 = load ptr, ptr %1, align 8, !tbaa !9
  call void @free(ptr noundef %21) #9
  %22 = call ptr @strbuf_detach(ptr noundef nonnull %3, ptr noundef null) #9
  store ptr %22, ptr %1, align 8, !tbaa !9
  call void @llvm.lifetime.end.p0(i64 24, ptr nonnull %3) #9
  ret void
}